; Function Attrs: nounwind uwtable
define hidden void @zif_zend_version(ptr noundef readonly captures(none) %0, ptr noundef writeonly captures(none) %1) #0 {
  %3 = getelementptr inbounds nuw i8, ptr %0, i64 44
  %4 = load i32, ptr %3, align 4, !tbaa !28
  %.not = icmp eq i32 %4, 0
  br i1 %.not, label %6, label %5, !prof !69

5:                                                ; preds = %2
  tail call void @zend_wrong_parameters_none_error() #14
  br label %14

6:                                                ; preds = %2
  %7 = tail call noalias ptr @_emalloc_40() #14
  store i32 1, ptr %7, align 4, !tbaa !30
  %8 = getelementptr inbounds nuw i8, ptr %7, i64 4
  store i32 22, ptr %8, align 4, !tbaa !28
  %9 = getelementptr inbounds nuw i8, ptr %7, i64 8
  store i64 0, ptr %9, align 8, !tbaa !70
  %10 = getelementptr inbounds nuw i8, ptr %7, i64 16
  store i64 9, ptr %10, align 8, !tbaa !65
  %11 = getelementptr inbounds nuw i8, ptr %7, i64 24
  tail call void @llvm.memcpy.p0.p0.i64(ptr noundef nonnull align 8 dereferenceable(9) %11, ptr noundef nonnull align 1 dereferenceable(9) @.str, i64 9, i1 false)
  %12 = getelementptr inbounds nuw i8, ptr %7, i64 33
  store i8 0, ptr %12, align 1, !tbaa !28
  store ptr %7, ptr %1, align 8, !tbaa !28
  %13 = getelementptr inbounds nuw i8, ptr %1, i64 8
  store i32 262, ptr %13, align 8, !tbaa !28
  br label %14

14:                                               ; preds = %6, %5
  ret void
}